; Function Attrs: nounwind uwtable
define internal noundef i32 @each_scalar(ptr noundef captures(none) %0, ptr noundef %1, i32 %2) #0 {
  %4 = load ptr, ptr %0, align 8
  %5 = getelementptr inbounds nuw i8, ptr %4, i64 56
  %6 = load i32, ptr %5, align 8
  %7 = icmp eq i32 %6, 0
  br i1 %7, label %8, label %12

8:                                                ; preds = %3
  %9 = tail call zeroext i1 @errstart_cold(i32 noundef 21, ptr noundef null) #16
  tail call void @llvm.assume(i1 %9)
  %10 = tail call i32 @errcode(i32 noundef 50856066) #15
  %11 = tail call i32 (ptr, ...) @errmsg(ptr noundef nonnull @.str.61) #15
  tail call void @errfinish(ptr noundef nonnull @.str.2, i32 noundef 2189, ptr noundef nonnull @__func__.each_scalar) #15
  unreachable

12:                                               ; preds = %3
  %13 = getelementptr inbounds nuw i8, ptr %0, i64 41
  %14 = load i8, ptr %13, align 1, !range !4, !noundef !5
  %15 = trunc nuw i8 %14 to i1
  br i1 %15, label %16, label %18

16:                                               ; preds = %12
  %17 = getelementptr inbounds nuw i8, ptr %0, i64 48
  store ptr %1, ptr %17, align 8
  br label %18

18:                                               ; preds = %16, %12
  ret i32 0
}